target datalayout = "e-m:e-p270:32:32-p271:32:32-p272:64:64-i64:64-i128:128-f80:128-n8:16:32:64-S128"
target triple = "x86_64-pc-linux-gnu"

%struct.mbedtls_asn1_buf = type { i32, i64, ptr }
%struct.mbedtls_pk_rsassa_pss_options = type { i32, i32 }

@.str = private unnamed_addr constant [118 x i8] c"generated/home/dtcxzyw/WorkSpace/Projects/compilers/llvm-opt-benchmark/bench/lief/bench_build/mbed_src/library/x509.c\00", align 1

; Function Attrs: inlinehint nounwind uwtable
define internal i32 @mbedtls_error_add(i32 noundef %0, i32 noundef %1, ptr noundef %2, i32 noundef %3) #2 {
  %5 = alloca i32, align 4
  %6 = alloca i32, align 4
  %7 = alloca ptr, align 8
  %8 = alloca i32, align 4
  store i32 %0, ptr %5, align 4, !tbaa !13
  store i32 %1, ptr %6, align 4, !tbaa !13
  store ptr %2, ptr %7, align 8, !tbaa !9
  store i32 %3, ptr %8, align 4, !tbaa !13
  %9 = load i32, ptr %5, align 4, !tbaa !13
  %10 = load i32, ptr %6, align 4, !tbaa !13
  %11 = add nsw i32 %9, %10
  ret i32 %11
}

; Function Attrs: nounwind uwtable
define hidden i32 @mbedtls_x509_get_sig_alg(ptr noundef %0, ptr noundef %1, ptr noundef %2, ptr noundef %3, ptr noundef %4) #0 {
  %6 = alloca i32, align 4
  %7 = alloca ptr, align 8
  %8 = alloca ptr, align 8
  %9 = alloca ptr, align 8
  %10 = alloca ptr, align 8
  %11 = alloca ptr, align 8
  %12 = alloca i32, align 4
  %13 = alloca i32, align 4
  %14 = alloca ptr, align 8
  store ptr %0, ptr %7, align 8, !tbaa !11
  store ptr %1, ptr %8, align 8, !tbaa !11
  store ptr %2, ptr %9, align 8, !tbaa !21
  store ptr %3, ptr %10, align 8, !tbaa !21
  store ptr %4, ptr %11, align 8, !tbaa !39
  call void @llvm.lifetime.start.p0(i64 4, ptr %12) #9
  store i32 -110, ptr %12, align 4, !tbaa !13
  %15 = load ptr, ptr %11, align 8, !tbaa !39
  %16 = load ptr, ptr %15, align 8, !tbaa !21
  %17 = icmp ne ptr %16, null
  br i1 %17, label %18, label %19

18:                                               ; preds = %5
  store i32 -10240, ptr %6, align 4
  store i32 1, ptr %13, align 4
  br label %74

19:                                               ; preds = %5
  %20 = load ptr, ptr %7, align 8, !tbaa !11
  %21 = load ptr, ptr %9, align 8, !tbaa !21
  %22 = load ptr, ptr %10, align 8, !tbaa !21
  %23 = call i32 @mbedtls_oid_get_sig_alg(ptr noundef %20, ptr noundef %21, ptr noundef %22)
  store i32 %23, ptr %12, align 4, !tbaa !13
  %24 = icmp ne i32 %23, 0
  br i1 %24, label %25, label %28

25:                                               ; preds = %19
  %26 = load i32, ptr %12, align 4, !tbaa !13
  %27 = call i32 @mbedtls_error_add(i32 noundef -9728, i32 noundef %26, ptr noundef @.str, i32 noundef 729)
  store i32 %27, ptr %6, align 4
  store i32 1, ptr %13, align 4
  br label %74

28:                                               ; preds = %19
  %29 = load ptr, ptr %10, align 8, !tbaa !21
  %30 = load i32, ptr %29, align 4, !tbaa !13
  %31 = icmp eq i32 %30, 6
  br i1 %31, label %32, label %56

32:                                               ; preds = %28
  call void @llvm.lifetime.start.p0(i64 8, ptr %14) #9
  %33 = call noalias ptr @calloc(i64 noundef 1, i64 noundef 8) #11
  store ptr %33, ptr %14, align 8, !tbaa !40
  %34 = load ptr, ptr %14, align 8, !tbaa !40
  %35 = icmp eq ptr %34, null
  br i1 %35, label %36, label %37

36:                                               ; preds = %32
  store i32 -10368, ptr %6, align 4
  store i32 1, ptr %13, align 4
  br label %53

37:                                               ; preds = %32
  %38 = load ptr, ptr %8, align 8, !tbaa !11
  %39 = load ptr, ptr %9, align 8, !tbaa !21
  %40 = load ptr, ptr %14, align 8, !tbaa !40
  %41 = getelementptr inbounds nuw %struct.mbedtls_pk_rsassa_pss_options, ptr %40, i32 0, i32 0
  %42 = load ptr, ptr %14, align 8, !tbaa !40
  %43 = getelementptr inbounds nuw %struct.mbedtls_pk_rsassa_pss_options, ptr %42, i32 0, i32 1
  %44 = call i32 @mbedtls_x509_get_rsassa_pss_params(ptr noundef %38, ptr noundef %39, ptr noundef %41, ptr noundef %43)
  store i32 %44, ptr %12, align 4, !tbaa !13
  %45 = load i32, ptr %12, align 4, !tbaa !13
  %46 = icmp ne i32 %45, 0
  br i1 %46, label %47, label %50

47:                                               ; preds = %37
  %48 = load ptr, ptr %14, align 8, !tbaa !40
  call void @free(ptr noundef %48) #9
  %49 = load i32, ptr %12, align 4, !tbaa !13
  store i32 %49, ptr %6, align 4
  store i32 1, ptr %13, align 4
  br label %53

50:                                               ; preds = %37
  %51 = load ptr, ptr %14, align 8, !tbaa !40
  %52 = load ptr, ptr %11, align 8, !tbaa !39
  store ptr %51, ptr %52, align 8, !tbaa !21
  store i32 0, ptr %13, align 4
  br label %53

53:                                               ; preds = %50, %47, %36
  call void @llvm.lifetime.end.p0(i64 8, ptr %14) #9
  %54 = load i32, ptr %13, align 4
  switch i32 %54, label %74 [
    i32 0, label %55
  ]

55:                                               ; preds = %53
  br label %73

56:                                               ; preds = %28
  %57 = load ptr, ptr %8, align 8, !tbaa !11
  %58 = getelementptr inbounds nuw %struct.mbedtls_asn1_buf, ptr %57, i32 0, i32 0
  %59 = load i32, ptr %58, align 8, !tbaa !16
  %60 = icmp ne i32 %59, 5
  br i1 %60, label %61, label %66

61:                                               ; preds = %56
  %62 = load ptr, ptr %8, align 8, !tbaa !11
  %63 = getelementptr inbounds nuw %struct.mbedtls_asn1_buf, ptr %62, i32 0, i32 0
  %64 = load i32, ptr %63, align 8, !tbaa !16
  %65 = icmp ne i32 %64, 0
  br i1 %65, label %71, label %66

66:                                               ; preds = %61, %56
  %67 = load ptr, ptr %8, align 8, !tbaa !11
  %68 = getelementptr inbounds nuw %struct.mbedtls_asn1_buf, ptr %67, i32 0, i32 1
  %69 = load i64, ptr %68, align 8, !tbaa !20
  %70 = icmp ne i64 %69, 0
  br i1 %70, label %71, label %72

71:                                               ; preds = %66, %61
  store i32 -8960, ptr %6, align 4
  store i32 1, ptr %13, align 4
  br label %74

72:                                               ; preds = %66
  br label %73

73:                                               ; preds = %72, %55
  store i32 0, ptr %6, align 4
  store i32 1, ptr %13, align 4
  br label %74

74:                                               ; preds = %73, %71, %53, %25, %18
  call void @llvm.lifetime.end.p0(i64 4, ptr %12) #9
  %75 = load i32, ptr %6, align 4
  ret i32 %75
}