; Function Attrs: nounwind uwtable
define hidden range(i32 -2147483648, 2147474688) i32 @mbedtls_x509_get_sig_alg(ptr noundef %0, ptr noundef readonly captures(none) %1, ptr noundef %2, ptr noundef %3, ptr noundef captures(none) %4) local_unnamed_addr #0 {
  %6 = load ptr, ptr %4, align 8, !tbaa !28
  %.not = icmp eq ptr %6, null
  br i1 %.not, label %7, label %.thread

7:                                                ; preds = %5
  %8 = tail call i32 @mbedtls_oid_get_sig_alg(ptr noundef %0, ptr noundef %2, ptr noundef %3) #13
  %.not25 = icmp eq i32 %8, 0
  br i1 %.not25, label %11, label %9

9:                                                ; preds = %7
  %10 = add nsw i32 %8, -9728
  br label %.thread

11:                                               ; preds = %7
  %12 = load i32, ptr %3, align 4, !tbaa !15
  %13 = icmp eq i32 %12, 6
  br i1 %13, label %14, label %22

14:                                               ; preds = %11
  %15 = tail call noalias dereferenceable_or_null(8) ptr @calloc(i64 noundef 1, i64 noundef 8) #14
  %16 = icmp eq ptr %15, null
  br i1 %16, label %.thread, label %17

17:                                               ; preds = %14
  %18 = getelementptr inbounds nuw i8, ptr %15, i64 4
  %19 = tail call i32 @mbedtls_x509_get_rsassa_pss_params(ptr noundef %1, ptr noundef %2, ptr noundef nonnull %15, ptr noundef nonnull %18)
  %.not29 = icmp eq i32 %19, 0
  br i1 %.not29, label %21, label %20

20:                                               ; preds = %17
  tail call void @free(ptr noundef nonnull %15) #13
  br label %.thread

21:                                               ; preds = %17
  store ptr %15, ptr %4, align 8, !tbaa !28
  br label %27

22:                                               ; preds = %11
  %23 = load i32, ptr %1, align 8, !tbaa !9
  switch i32 %23, label %.thread [
    i32 5, label %24
    i32 0, label %24
  ]

24:                                               ; preds = %22, %22
  %25 = getelementptr inbounds nuw i8, ptr %1, i64 8
  %26 = load i64, ptr %25, align 8, !tbaa !14
  %.not28 = icmp eq i64 %26, 0
  br i1 %.not28, label %27, label %.thread

27:                                               ; preds = %21, %24
  br label %.thread

.thread:                                          ; preds = %14, %20, %24, %22, %5, %27, %9
  %.0 = phi i32 [ %10, %9 ], [ 0, %27 ], [ -10240, %5 ], [ -8960, %22 ], [ -8960, %24 ], [ -10368, %14 ], [ %19, %20 ]
  ret i32 %.0
}